target datalayout = "e-m:e-p270:32:32-p271:32:32-p272:64:64-i64:64-i128:128-f80:128-n8:16:32:64-S128"
target triple = "x86_64-pc-linux-gnu"

%struct._zend_array = type { %struct._zend_refcounted_h, %union.anon.0, i32, %union.anon.1, i32, i32, i32, i32, i64, ptr }
%struct._zend_refcounted_h = type { i32, %union.anon }
%union.anon = type { i32 }
%union.anon.0 = type { i32 }
%union.anon.1 = type { ptr }
%struct._zval_struct = type { %union._zend_value, %union.anon.3, %union.anon.6 }
%union._zend_value = type { i64 }
%union.anon.3 = type { i32 }
%union.anon.6 = type { i32 }
%struct._phar_archive_data = type { ptr, i32, ptr, i32, ptr, i32, [12 x i8], i64, i64, %struct._zend_array, %struct._zend_array, %struct._zend_array, i32, i32, i32, ptr, ptr, i32, i32, i32, ptr, %struct._phar_metadata_tracker, i32, i16 }
%struct._phar_metadata_tracker = type { %struct._zval_struct, ptr }
%struct._phar_entry_info = type { i32, i32, i32, i32, i32, i32, %struct._phar_metadata_tracker, i32, ptr, i32, i64, i64, i64, ptr, ptr, i32, ptr, ptr, ptr, i8, i32, i16, i16 }
%struct._phar_entry_data = type { ptr, ptr, i64, i64, i8, ptr }

; Function Attrs: nounwind uwtable
define hidden void @phar_entry_remove(ptr noundef %0, ptr noundef %1) #0 {
  %3 = alloca ptr, align 8
  %4 = alloca ptr, align 8
  %5 = alloca ptr, align 8
  store ptr %0, ptr %3, align 8
  store ptr %1, ptr %4, align 8
  %6 = load ptr, ptr %3, align 8
  %7 = getelementptr inbounds %struct._phar_entry_data, ptr %6, i32 0, i32 0
  %8 = load ptr, ptr %7, align 8
  store ptr %8, ptr %5, align 8
  %9 = load ptr, ptr %3, align 8
  %10 = getelementptr inbounds %struct._phar_entry_data, ptr %9, i32 0, i32 5
  %11 = load ptr, ptr %10, align 8
  %12 = getelementptr inbounds %struct._phar_entry_info, ptr %11, i32 0, i32 15
  %13 = load i32, ptr %12, align 8
  %14 = icmp slt i32 %13, 2
  br i1 %14, label %15, label %79

15:                                               ; preds = %2
  %16 = load ptr, ptr %3, align 8
  %17 = getelementptr inbounds %struct._phar_entry_data, ptr %16, i32 0, i32 1
  %18 = load ptr, ptr %17, align 8
  %19 = icmp ne ptr %18, null
  br i1 %19, label %20, label %55

20:                                               ; preds = %15
  %21 = load ptr, ptr %3, align 8
  %22 = getelementptr inbounds %struct._phar_entry_data, ptr %21, i32 0, i32 1
  %23 = load ptr, ptr %22, align 8
  %24 = load ptr, ptr %3, align 8
  %25 = getelementptr inbounds %struct._phar_entry_data, ptr %24, i32 0, i32 0
  %26 = load ptr, ptr %25, align 8
  %27 = getelementptr inbounds %struct._phar_archive_data, ptr %26, i32 0, i32 15
  %28 = load ptr, ptr %27, align 8
  %29 = icmp ne ptr %23, %28
  br i1 %29, label %30, label %55

30:                                               ; preds = %20
  %31 = load ptr, ptr %3, align 8
  %32 = getelementptr inbounds %struct._phar_entry_data, ptr %31, i32 0, i32 1
  %33 = load ptr, ptr %32, align 8
  %34 = load ptr, ptr %3, align 8
  %35 = getelementptr inbounds %struct._phar_entry_data, ptr %34, i32 0, i32 0
  %36 = load ptr, ptr %35, align 8
  %37 = getelementptr inbounds %struct._phar_archive_data, ptr %36, i32 0, i32 16
  %38 = load ptr, ptr %37, align 8
  %39 = icmp ne ptr %33, %38
  br i1 %39, label %40, label %55

40:                                               ; preds = %30
  %41 = load ptr, ptr %3, align 8
  %42 = getelementptr inbounds %struct._phar_entry_data, ptr %41, i32 0, i32 1
  %43 = load ptr, ptr %42, align 8
  %44 = load ptr, ptr %3, align 8
  %45 = getelementptr inbounds %struct._phar_entry_data, ptr %44, i32 0, i32 5
  %46 = load ptr, ptr %45, align 8
  %47 = getelementptr inbounds %struct._phar_entry_info, ptr %46, i32 0, i32 13
  %48 = load ptr, ptr %47, align 8
  %49 = icmp ne ptr %43, %48
  br i1 %49, label %50, label %55

50:                                               ; preds = %40
  %51 = load ptr, ptr %3, align 8
  %52 = getelementptr inbounds %struct._phar_entry_data, ptr %51, i32 0, i32 1
  %53 = load ptr, ptr %52, align 8
  %54 = call i32 @_php_stream_free(ptr noundef %53, i32 noundef 3)
  br label %55

55:                                               ; preds = %50, %40, %30, %20, %15
  %56 = load ptr, ptr %3, align 8
  %57 = getelementptr inbounds %struct._phar_entry_data, ptr %56, i32 0, i32 0
  %58 = load ptr, ptr %57, align 8
  %59 = getelementptr inbounds %struct._phar_archive_data, ptr %58, i32 0, i32 9
  %60 = load ptr, ptr %3, align 8
  %61 = getelementptr inbounds %struct._phar_entry_data, ptr %60, i32 0, i32 5
  %62 = load ptr, ptr %61, align 8
  %63 = getelementptr inbounds %struct._phar_entry_info, ptr %62, i32 0, i32 8
  %64 = load ptr, ptr %63, align 8
  %65 = load ptr, ptr %3, align 8
  %66 = getelementptr inbounds %struct._phar_entry_data, ptr %65, i32 0, i32 5
  %67 = load ptr, ptr %66, align 8
  %68 = getelementptr inbounds %struct._phar_entry_info, ptr %67, i32 0, i32 7
  %69 = load i32, ptr %68, align 8
  %70 = zext i32 %69 to i64
  %71 = call i32 @zend_hash_str_del(ptr noundef %59, ptr noundef %64, i64 noundef %70)
  %72 = load ptr, ptr %3, align 8
  %73 = getelementptr inbounds %struct._phar_entry_data, ptr %72, i32 0, i32 0
  %74 = load ptr, ptr %73, align 8
  %75 = getelementptr inbounds %struct._phar_archive_data, ptr %74, i32 0, i32 17
  %76 = load i32, ptr %75, align 8
  %77 = add nsw i32 %76, -1
  store i32 %77, ptr %75, align 8
  %78 = load ptr, ptr %3, align 8
  call void @_efree(ptr noundef %78)
  br label %89

79:                                               ; preds = %2
  %80 = load ptr, ptr %3, align 8
  %81 = getelementptr inbounds %struct._phar_entry_data, ptr %80, i32 0, i32 5
  %82 = load ptr, ptr %81, align 8
  %83 = getelementptr inbounds %struct._phar_entry_info, ptr %82, i32 0, i32 22
  %84 = load i16, ptr %83, align 2
  %85 = and i16 %84, -5
  %86 = or i16 %85, 4
  store i16 %86, ptr %83, align 2
  %87 = load ptr, ptr %3, align 8
  %88 = call i32 @phar_entry_delref(ptr noundef %87)
  br label %89

89:                                               ; preds = %79, %55
  %90 = load ptr, ptr %5, align 8
  %91 = getelementptr inbounds %struct._phar_archive_data, ptr %90, i32 0, i32 23
  %92 = load i16, ptr %91, align 4
  %93 = lshr i16 %92, 4
  %94 = and i16 %93, 1
  %95 = zext i16 %94 to i32
  %96 = icmp ne i32 %95, 0
  br i1 %96, label %101, label %97

97:                                               ; preds = %89
  %98 = load ptr, ptr %5, align 8
  %99 = load ptr, ptr %4, align 8
  %100 = call i32 @phar_flush(ptr noundef %98, ptr noundef null, i64 noundef 0, i32 noundef 0, ptr noundef %99)
  br label %101

101:                                              ; preds = %97, %89
  ret void
}