; Function Attrs: nounwind uwtable
define hidden void @phar_entry_remove(ptr noundef %0, ptr noundef %1) local_unnamed_addr #0 {
  %3 = load ptr, ptr %0, align 8
  %4 = getelementptr inbounds i8, ptr %0, i64 40
  %5 = load ptr, ptr %4, align 8
  %6 = getelementptr inbounds i8, ptr %5, i64 112
  %7 = load i32, ptr %6, align 8
  %8 = icmp slt i32 %7, 2
  br i1 %8, label %9, label %37

9:                                                ; preds = %2
  %10 = getelementptr inbounds i8, ptr %0, i64 8
  %11 = load ptr, ptr %10, align 8
  %.not = icmp eq ptr %11, null
  br i1 %.not, label %23, label %12

12:                                               ; preds = %9
  %13 = getelementptr inbounds i8, ptr %3, i64 256
  %14 = load ptr, ptr %13, align 8
  %.not20 = icmp eq ptr %11, %14
  br i1 %.not20, label %23, label %15

15:                                               ; preds = %12
  %16 = getelementptr inbounds i8, ptr %3, i64 264
  %17 = load ptr, ptr %16, align 8
  %.not21 = icmp eq ptr %11, %17
  br i1 %.not21, label %23, label %18

18:                                               ; preds = %15
  %19 = getelementptr inbounds i8, ptr %5, i64 96
  %20 = load ptr, ptr %19, align 8
  %.not22 = icmp eq ptr %11, %20
  br i1 %.not22, label %23, label %21

21:                                               ; preds = %18
  %22 = tail call i32 @_php_stream_free(ptr noundef nonnull %11, i32 noundef 3) #23
  %.pre = load ptr, ptr %0, align 8
  %.pre24 = load ptr, ptr %4, align 8
  br label %23

23:                                               ; preds = %21, %18, %15, %12, %9
  %24 = phi ptr [ %.pre24, %21 ], [ %5, %18 ], [ %5, %15 ], [ %5, %12 ], [ %5, %9 ]
  %25 = phi ptr [ %.pre, %21 ], [ %3, %18 ], [ %3, %15 ], [ %3, %12 ], [ %3, %9 ]
  %26 = getelementptr inbounds i8, ptr %25, i64 72
  %27 = getelementptr inbounds i8, ptr %24, i64 56
  %28 = load ptr, ptr %27, align 8
  %29 = getelementptr inbounds i8, ptr %24, i64 48
  %30 = load i32, ptr %29, align 8
  %31 = zext i32 %30 to i64
  %32 = tail call i32 @zend_hash_str_del(ptr noundef nonnull %26, ptr noundef %28, i64 noundef %31) #23
  %33 = load ptr, ptr %0, align 8
  %34 = getelementptr inbounds i8, ptr %33, i64 272
  %35 = load i32, ptr %34, align 8
  %36 = add nsw i32 %35, -1
  store i32 %36, ptr %34, align 8
  tail call void @_efree(ptr noundef nonnull %0) #23
  br label %42

37:                                               ; preds = %2
  %38 = getelementptr inbounds i8, ptr %5, i64 154
  %39 = load i16, ptr %38, align 2
  %40 = or i16 %39, 4
  store i16 %40, ptr %38, align 2
  %41 = tail call i32 @phar_entry_delref(ptr noundef nonnull %0)
  br label %42

42:                                               ; preds = %37, %23
  %43 = getelementptr inbounds i8, ptr %3, i64 324
  %44 = load i16, ptr %43, align 4
  %45 = and i16 %44, 16
  %.not23 = icmp eq i16 %45, 0
  br i1 %.not23, label %46, label %48

46:                                               ; preds = %42
  %47 = tail call i32 @phar_flush(ptr noundef nonnull %3, ptr noundef null, i64 noundef 0, i32 noundef 0, ptr noundef %1)
  br label %48

48:                                               ; preds = %46, %42
  ret void
}